target datalayout = "e-m:e-p270:32:32-p271:32:32-p272:64:64-i64:64-i128:128-f80:128-n8:16:32:64-S128"
target triple = "x86_64-pc-linux-gnu"

@ett_bacapp_value = internal global i32 0, align 4
@.str.2598 = private unnamed_addr constant [19 x i8] c"ObjectIdentifier: \00", align 1
@.str.3897 = private unnamed_addr constant [24 x i8] c"requesting Process Id: \00", align 1
@.str.3898 = private unnamed_addr constant [20 x i8] c"requesting Source: \00", align 1
@.str.3899 = private unnamed_addr constant [10 x i8] c"request: \00", align 1

; Function Attrs: null_pointer_is_valid sspstrong uwtable
define internal i32 @fCharacterString(ptr noundef %0, ptr noundef %1, ptr noundef %2, i32 noundef %3, ptr noundef %4) #0 {
  %6 = alloca ptr, align 8
  %7 = alloca ptr, align 8
  %8 = alloca ptr, align 8
  %9 = alloca i32, align 4
  %10 = alloca ptr, align 8
  store ptr %0, ptr %6, align 8
  store ptr %1, ptr %7, align 8
  store ptr %2, ptr %8, align 8
  store i32 %3, ptr %9, align 4
  store ptr %4, ptr %10, align 8
  %11 = load ptr, ptr %6, align 8
  %12 = load ptr, ptr %7, align 8
  %13 = load ptr, ptr %8, align 8
  %14 = load i32, ptr %9, align 4
  %15 = load ptr, ptr %10, align 8
  %16 = call i32 @fCharacterStringBase(ptr noundef %11, ptr noundef %12, ptr noundef %13, i32 noundef %14, ptr noundef %15, i1 noundef zeroext false, i1 noundef zeroext false)
  ret i32 %16
}

; Function Attrs: null_pointer_is_valid sspstrong uwtable
define internal i32 @fTagHeader(ptr noundef %0, ptr noundef %1, i32 noundef %2, ptr noundef %3, ptr noundef %4, ptr noundef %5) #0 {
  %7 = alloca ptr, align 8
  %8 = alloca ptr, align 8
  %9 = alloca i32, align 4
  %10 = alloca ptr, align 8
  %11 = alloca ptr, align 8
  %12 = alloca ptr, align 8
  store ptr %0, ptr %7, align 8
  store ptr %1, ptr %8, align 8
  store i32 %2, ptr %9, align 4
  store ptr %3, ptr %10, align 8
  store ptr %4, ptr %11, align 8
  store ptr %5, ptr %12, align 8
  %13 = load ptr, ptr %7, align 8
  %14 = load ptr, ptr %8, align 8
  %15 = load i32, ptr %9, align 4
  %16 = load ptr, ptr %10, align 8
  %17 = load ptr, ptr %11, align 8
  %18 = load ptr, ptr %12, align 8
  %19 = call i32 @fTagHeaderTree(ptr noundef %13, ptr noundef %14, ptr noundef null, i32 noundef %15, ptr noundef %16, ptr noundef %17, ptr noundef %18)
  ret i32 %19
}

; Function Attrs: null_pointer_is_valid sspstrong uwtable
define internal i32 @fLifeSafetyOperationRequest(ptr noundef %0, ptr noundef %1, ptr noundef %2, i32 noundef %3, ptr noundef %4) #0 {
  %6 = alloca i32, align 4
  %7 = alloca ptr, align 8
  %8 = alloca ptr, align 8
  %9 = alloca ptr, align 8
  %10 = alloca i32, align 4
  %11 = alloca ptr, align 8
  %12 = alloca i32, align 4
  %13 = alloca i8, align 1
  %14 = alloca i8, align 1
  %15 = alloca i32, align 4
  %16 = alloca ptr, align 8
  %17 = alloca i32, align 4
  store ptr %0, ptr %7, align 8
  store ptr %1, ptr %8, align 8
  store ptr %2, ptr %9, align 8
  store i32 %3, ptr %10, align 4
  store ptr %4, ptr %11, align 8
  call void @llvm.lifetime.start.p0(i64 4, ptr %12) #7
  store i32 0, ptr %12, align 4
  call void @llvm.lifetime.start.p0(i64 1, ptr %13) #7
  call void @llvm.lifetime.start.p0(i64 1, ptr %14) #7
  call void @llvm.lifetime.start.p0(i64 4, ptr %15) #7
  call void @llvm.lifetime.start.p0(i64 8, ptr %16) #7
  %18 = load ptr, ptr %9, align 8
  store ptr %18, ptr %16, align 8
  %19 = load ptr, ptr %11, align 8
  %20 = icmp ne ptr %19, null
  br i1 %20, label %21, label %28

21:                                               ; preds = %5
  %22 = load ptr, ptr %16, align 8
  %23 = load ptr, ptr %7, align 8
  %24 = load i32, ptr %10, align 4
  %25 = load i32, ptr @ett_bacapp_value, align 4
  %26 = load ptr, ptr %11, align 8
  %27 = call ptr @proto_tree_add_subtree(ptr noundef %22, ptr noundef %23, i32 noundef %24, i32 noundef 1, i32 noundef %25, ptr noundef null, ptr noundef %26)
  store ptr %27, ptr %16, align 8
  br label %28

28:                                               ; preds = %21, %5
  br label %29

29:                                               ; preds = %73, %28
  %30 = load ptr, ptr %7, align 8
  %31 = load i32, ptr %10, align 4
  %32 = call i32 @tvb_reported_length_remaining(ptr noundef %30, i32 noundef %31)
  %33 = icmp sgt i32 %32, 0
  br i1 %33, label %34, label %74

34:                                               ; preds = %29
  %35 = load i32, ptr %10, align 4
  store i32 %35, ptr %12, align 4
  %36 = load ptr, ptr %7, align 8
  %37 = load ptr, ptr %8, align 8
  %38 = load i32, ptr %10, align 4
  %39 = call i32 @fTagHeader(ptr noundef %36, ptr noundef %37, i32 noundef %38, ptr noundef %13, ptr noundef %14, ptr noundef %15)
  %40 = load i8, ptr %13, align 1
  %41 = zext i8 %40 to i32
  switch i32 %41, label %66 [
    i32 0, label %42
    i32 1, label %48
    i32 2, label %54
    i32 3, label %60
  ]

42:                                               ; preds = %34
  %43 = load ptr, ptr %7, align 8
  %44 = load ptr, ptr %8, align 8
  %45 = load ptr, ptr %16, align 8
  %46 = load i32, ptr %10, align 4
  %47 = call i32 @fUnsignedTag(ptr noundef %43, ptr noundef %44, ptr noundef %45, i32 noundef %46, ptr noundef @.str.3897)
  store i32 %47, ptr %10, align 4
  br label %68

48:                                               ; preds = %34
  %49 = load ptr, ptr %7, align 8
  %50 = load ptr, ptr %8, align 8
  %51 = load ptr, ptr %9, align 8
  %52 = load i32, ptr %10, align 4
  %53 = call i32 @fCharacterString(ptr noundef %49, ptr noundef %50, ptr noundef %51, i32 noundef %52, ptr noundef @.str.3898)
  store i32 %53, ptr %10, align 4
  br label %68

54:                                               ; preds = %34
  %55 = load ptr, ptr %7, align 8
  %56 = load ptr, ptr %8, align 8
  %57 = load ptr, ptr %9, align 8
  %58 = load i32, ptr %10, align 4
  %59 = call i32 @fEnumeratedTagSplit(ptr noundef %55, ptr noundef %56, ptr noundef %57, i32 noundef %58, ptr noundef @.str.3899, ptr noundef @BACnetLifeSafetyOperation, i32 noundef 64)
  store i32 %59, ptr %10, align 4
  br label %68

60:                                               ; preds = %34
  %61 = load ptr, ptr %7, align 8
  %62 = load ptr, ptr %8, align 8
  %63 = load ptr, ptr %16, align 8
  %64 = load i32, ptr %10, align 4
  %65 = call i32 @fObjectIdentifier(ptr noundef %61, ptr noundef %62, ptr noundef %63, i32 noundef %64, ptr noundef @.str.2598)
  store i32 %65, ptr %10, align 4
  br label %68

66:                                               ; preds = %34
  %67 = load i32, ptr %10, align 4
  store i32 %67, ptr %6, align 4
  store i32 1, ptr %17, align 4
  br label %76

68:                                               ; preds = %60, %54, %48, %42
  %69 = load i32, ptr %10, align 4
  %70 = load i32, ptr %12, align 4
  %71 = icmp ule i32 %69, %70
  br i1 %71, label %72, label %73

72:                                               ; preds = %68
  br label %74

73:                                               ; preds = %68
  br label %29, !llvm.loop !171

74:                                               ; preds = %72, %29
  %75 = load i32, ptr %10, align 4
  store i32 %75, ptr %6, align 4
  store i32 1, ptr %17, align 4
  br label %76

76:                                               ; preds = %74, %66
  call void @llvm.lifetime.end.p0(i64 8, ptr %16) #7
  call void @llvm.lifetime.end.p0(i64 4, ptr %15) #7
  call void @llvm.lifetime.end.p0(i64 1, ptr %14) #7
  call void @llvm.lifetime.end.p0(i64 1, ptr %13) #7
  call void @llvm.lifetime.end.p0(i64 4, ptr %12) #7
  %77 = load i32, ptr %6, align 4
  ret i32 %77
}