; Function Attrs: null_pointer_is_valid sspstrong uwtable
define internal fastcc i32 @fLifeSafetyOperationRequest(ptr noundef nonnull %0, ptr noundef %1, ptr noundef %2, i32 noundef range(i32 0, 7) %3) unnamed_addr #0 {
  %5 = alloca i8, align 1
  %6 = alloca i8, align 1
  %7 = alloca i32, align 4
  call void @llvm.lifetime.start.p0(i64 1, ptr nonnull %5) #6
  call void @llvm.lifetime.start.p0(i64 1, ptr nonnull %6) #6
  call void @llvm.lifetime.start.p0(i64 4, ptr nonnull %7) #6
  br label %8

8:                                                ; preds = %22, %4
  %.033 = phi i32 [ %3, %4 ], [ %.2, %22 ]
  %9 = tail call i32 @tvb_reported_length_remaining(ptr noundef nonnull %0, i32 noundef %.033)
  %10 = icmp sgt i32 %9, 0
  br i1 %10, label %11, label %23

11:                                               ; preds = %8
  %12 = call fastcc range(i32 1, 8) i32 @fTagHeaderTree(ptr noundef nonnull %0, ptr noundef %1, ptr noundef null, i32 noundef %.033, ptr noundef nonnull %5, ptr noundef nonnull %6, ptr noundef nonnull %7)
  %13 = load i8, ptr %5, align 1
  switch i8 %13, label %23 [
    i8 0, label %14
    i8 1, label %16
    i8 2, label %18
    i8 3, label %20
  ]

14:                                               ; preds = %11
  %15 = tail call fastcc i32 @fUnsignedTag(ptr noundef %0, ptr noundef %1, ptr noundef %2, i32 noundef %.033, ptr noundef nonnull @.str.3897)
  br label %22

16:                                               ; preds = %11
  %17 = tail call fastcc i32 @fCharacterStringBase(ptr noundef nonnull %0, ptr noundef %1, ptr noundef %2, i32 noundef %.033, ptr noundef nonnull @.str.3898, i1 noundef zeroext false, i1 noundef zeroext false)
  br label %22

18:                                               ; preds = %11
  %19 = tail call fastcc i32 @fEnumeratedTagSplit(ptr noundef %0, ptr noundef %1, ptr noundef %2, i32 noundef %.033, ptr noundef nonnull @.str.3899, ptr noundef nonnull @BACnetLifeSafetyOperation, i32 noundef 64)
  br label %22

20:                                               ; preds = %11
  %21 = tail call fastcc i32 @fObjectIdentifier(ptr noundef %0, ptr noundef %1, ptr noundef %2, i32 noundef %.033, ptr noundef nonnull @.str.2598)
  br label %22

22:                                               ; preds = %20, %18, %16, %14
  %.2 = phi i32 [ %21, %20 ], [ %19, %18 ], [ %17, %16 ], [ %15, %14 ]
  %.not = icmp ugt i32 %.2, %.033
  br i1 %.not, label %8, label %23, !llvm.loop !181

23:                                               ; preds = %8, %22, %11
  %.032 = phi i32 [ %.033, %11 ], [ %.2, %22 ], [ %.033, %8 ]
  call void @llvm.lifetime.end.p0(i64 4, ptr nonnull %7) #6
  call void @llvm.lifetime.end.p0(i64 1, ptr nonnull %6) #6
  call void @llvm.lifetime.end.p0(i64 1, ptr nonnull %5) #6
  ret i32 %.032
}